ccopy_reg
_reconstructor
p0
(c__main__
Class
p1
c__builtin__
object
p2
Ntp3
Rp4
(dp5
S'properties'
p6
(dp7
S'type'
p8
S'Class'
p9
sS'name'
p10
S'4357 Embedded Firmware'
p11
sS'links'
p12
(lp13
(dp14
S'grade'
p15
I200
sg8
S'Student'
p16
sg10
S'Alice'
p17
sg12
(lp18
(dp19
S'score'
p20
I100
sg8
S'PA'
p21
sg10
S'python'
p22
sa(dp23
g20
I100
sg8
g21
sg10
S'C'
p24
sasa(dp25
g15
I100
sg8
g16
sg10
S'Bob'
p26
sg12
(lp27
g19
asassg12
(lp28
g0
(c__main__
Student
p29
g2
Ntp30
Rp31
(dp32
g6
g14
sg12
(lp33
g0
(c__main__
PA
p34
g2
Ntp35
Rp36
(dp37
g6
g19
sg12
(lp38
sbag0
(g34
g2
Ntp39
Rp40
(dp41
g6
g23
sg12
(lp42
sbasbag0
(g29
g2
Ntp43
Rp44
(dp45
g6
g25
sg12
(lp46
g36
asbasb.